target datalayout = "e-m:e-p270:32:32-p271:32:32-p272:64:64-i64:64-i128:128-f80:128-n8:16:32:64-S128"
target triple = "x86_64-pc-linux-gnu"

%struct.AVChannelLayout = type { i32, i32, %union.anon, ptr }
%union.anon = type { i64 }
%struct.AACDecContext = type { ptr, ptr, %struct.AACDecDSP, %struct.AACDecProc, ptr, i32, %struct.DynamicRangeControl, [4 x [64 x ptr]], [4 x [64 x ptr]], i32, i32, [8 x i8], %union.anon.0, %union.anon.1, ptr, ptr, ptr, ptr, ptr, ptr, ptr, ptr, ptr, ptr, ptr, ptr, ptr, ptr, ptr, ptr, ptr, ptr, %union.anon.2, i32, [64 x ptr], i32, i32, i32, [2 x %struct.OutputConfiguration], i32, i32, i32, i32, i32, i32, [8 x i8] }
%struct.AACDecDSP = type { ptr, ptr, ptr, ptr, ptr, ptr, ptr, ptr, ptr, ptr, ptr, ptr, ptr, ptr, ptr }
%struct.AACDecProc = type { ptr, ptr, ptr, ptr, ptr, ptr }
%struct.DynamicRangeControl = type { i32, [17 x i32], [17 x i32], [64 x i32], i32, i32, [17 x i32], i32 }
%union.anon.0 = type { [1024 x i32] }
%union.anon.1 = type { [128 x i32] }
%union.anon.2 = type { ptr }
%struct.OutputConfiguration = type { %struct.MPEG4AudioConfig, [256 x [3 x i8]], i32, %struct.AVChannelLayout, i32, %struct.AACUSACConfig }
%struct.MPEG4AudioConfig = type { i32, i32, i32, i32, i32, i32, i32, i32, i32, i32, i32, i32 }
%struct.AACUSACConfig = type { i8, i16, i16, [64 x %struct.AACUsacElemConfig], i32, %struct.anon.6 }
%struct.AACUsacElemConfig = type { i32, i8, i8, %struct.anon, %struct.anon.4, %struct.anon.5 }
%struct.anon = type { i32, i8, %struct.anon.3 }
%struct.anon.3 = type { i8, i8, i8, i8, i8, i8, i8, i8 }
%struct.anon.4 = type { i8, i8, i8, i8, i8, i8, i8, i8, i8 }
%struct.anon.5 = type { i32, i8, i32, i32, ptr }
%struct.anon.6 = type { i8, i8, [64 x %struct.AACUSACLoudnessInfo], i8, i8, [64 x %struct.AACUSACLoudnessInfo] }
%struct.AACUSACLoudnessInfo = type <{ i16, %struct.anon.7, %struct.anon.8, i8, [16 x %struct.anon.9], i8 }>
%struct.anon.7 = type { i16 }
%struct.anon.8 = type { i32 }
%struct.anon.9 = type { i8, i8, i8 }
%struct.SingleChannelElement = type { %struct.IndividualChannelStream, %struct.AACUsacElemData, %struct.TemporalNoiseShaping, [128 x i32], [128 x i32], %union.anon.15, [12 x i8], %union.anon.16, %union.anon.17, %union.anon.18, %union.anon.19, %union.anon.20, %union.anon.21, %union.anon.22 }
%struct.IndividualChannelStream = type { i8, [2 x i32], [2 x i8], i32, i32, [8 x i8], %struct.LongTermPrediction, ptr, i32, i32, i32, i32, i32, i32, [41 x i8], [8 x i8] }
%struct.LongTermPrediction = type { i8, i16, %union.anon.10, [40 x i8] }
%union.anon.10 = type { i32 }
%struct.AACUsacElemData = type { i8, i8, i8, [16 x i8], %struct.anon.11, %struct.anon.12, %struct.anon.13, %struct.AACArithState }
%struct.anon.11 = type { i16, i32 }
%struct.anon.12 = type { i32, i8 }
%struct.anon.13 = type { i8, [8 x [8 x i32]] }
%struct.AACArithState = type { [513 x i8], i32, [4 x i8], i16 }
%struct.TemporalNoiseShaping = type { i32, [8 x i32], [8 x [4 x i32]], [8 x [4 x i32]], [8 x [4 x i32]], %union.anon.14 }
%union.anon.14 = type { [8 x [4 x [20 x i32]]] }
%union.anon.15 = type { [128 x i32] }
%union.anon.16 = type { [1024 x i32] }
%union.anon.17 = type { [1024 x i32] }
%union.anon.18 = type { [1536 x i32] }
%union.anon.19 = type { [2048 x i32] }
%union.anon.20 = type { [3072 x i32] }
%union.anon.21 = type { ptr }
%union.anon.22 = type { ptr }
%struct.AVFloatDSPContext = type { ptr, ptr, ptr, ptr, ptr, ptr, ptr, ptr, ptr, ptr, ptr, ptr }

@ff_sine_128 = external global [128 x float], align 16
@ff_sine_512 = external global [512 x float], align 16

; Function Attrs: nounwind uwtable
define internal void @imdct_and_windowing_ld(ptr noundef %0, ptr noundef %1) #3 {
  %3 = alloca ptr, align 8
  %4 = alloca ptr, align 8
  %5 = alloca ptr, align 8
  %6 = alloca ptr, align 8
  %7 = alloca ptr, align 8
  %8 = alloca ptr, align 8
  %9 = alloca ptr, align 8
  store ptr %0, ptr %3, align 8, !tbaa !29
  store ptr %1, ptr %4, align 8, !tbaa !66
  call void @llvm.lifetime.start.p0(i64 8, ptr %5) #11
  %10 = load ptr, ptr %4, align 8, !tbaa !66
  %11 = getelementptr inbounds nuw %struct.SingleChannelElement, ptr %10, i32 0, i32 0
  store ptr %11, ptr %5, align 8, !tbaa !68
  call void @llvm.lifetime.start.p0(i64 8, ptr %6) #11
  %12 = load ptr, ptr %4, align 8, !tbaa !66
  %13 = getelementptr inbounds nuw %struct.SingleChannelElement, ptr %12, i32 0, i32 7
  %14 = getelementptr inbounds [1024 x float], ptr %13, i64 0, i64 0
  store ptr %14, ptr %6, align 8, !tbaa !71
  call void @llvm.lifetime.start.p0(i64 8, ptr %7) #11
  %15 = load ptr, ptr %4, align 8, !tbaa !66
  %16 = getelementptr inbounds nuw %struct.SingleChannelElement, ptr %15, i32 0, i32 13
  %17 = load ptr, ptr %16, align 8, !tbaa !40
  store ptr %17, ptr %7, align 8, !tbaa !71
  call void @llvm.lifetime.start.p0(i64 8, ptr %8) #11
  %18 = load ptr, ptr %4, align 8, !tbaa !66
  %19 = getelementptr inbounds nuw %struct.SingleChannelElement, ptr %18, i32 0, i32 9
  %20 = getelementptr inbounds [1536 x float], ptr %19, i64 0, i64 0
  store ptr %20, ptr %8, align 8, !tbaa !71
  call void @llvm.lifetime.start.p0(i64 8, ptr %9) #11
  %21 = load ptr, ptr %3, align 8, !tbaa !29
  %22 = getelementptr inbounds nuw %struct.AACDecContext, ptr %21, i32 0, i32 12
  %23 = getelementptr inbounds [1024 x float], ptr %22, i64 0, i64 0
  store ptr %23, ptr %9, align 8, !tbaa !71
  %24 = load ptr, ptr %3, align 8, !tbaa !29
  %25 = getelementptr inbounds nuw %struct.AACDecContext, ptr %24, i32 0, i32 27
  %26 = load ptr, ptr %25, align 8, !tbaa !160
  %27 = load ptr, ptr %3, align 8, !tbaa !29
  %28 = getelementptr inbounds nuw %struct.AACDecContext, ptr %27, i32 0, i32 18
  %29 = load ptr, ptr %28, align 16, !tbaa !161
  %30 = load ptr, ptr %9, align 8, !tbaa !71
  %31 = load ptr, ptr %6, align 8, !tbaa !71
  call void %26(ptr noundef %29, ptr noundef %30, ptr noundef %31, i64 noundef 4)
  %32 = load ptr, ptr %5, align 8, !tbaa !68
  %33 = getelementptr inbounds nuw %struct.IndividualChannelStream, ptr %32, i32 0, i32 2
  %34 = getelementptr inbounds [2 x i8], ptr %33, i64 0, i64 1
  %35 = load i8, ptr %34, align 1, !tbaa !40
  %36 = icmp ne i8 %35, 0
  br i1 %36, label %37, label %54

37:                                               ; preds = %2
  %38 = load ptr, ptr %7, align 8, !tbaa !71
  %39 = load ptr, ptr %8, align 8, !tbaa !71
  call void @llvm.memcpy.p0.p0.i64(ptr align 4 %38, ptr align 4 %39, i64 768, i1 false)
  %40 = load ptr, ptr %3, align 8, !tbaa !29
  %41 = getelementptr inbounds nuw %struct.AACDecContext, ptr %40, i32 0, i32 32
  %42 = load ptr, ptr %41, align 16, !tbaa !40
  %43 = getelementptr inbounds nuw %struct.AVFloatDSPContext, ptr %42, i32 0, i32 5
  %44 = load ptr, ptr %43, align 8, !tbaa !149
  %45 = load ptr, ptr %7, align 8, !tbaa !71
  %46 = getelementptr inbounds float, ptr %45, i64 192
  %47 = load ptr, ptr %8, align 8, !tbaa !71
  %48 = getelementptr inbounds float, ptr %47, i64 192
  %49 = load ptr, ptr %9, align 8, !tbaa !71
  call void %44(ptr noundef %46, ptr noundef %48, ptr noundef %49, ptr noundef @ff_sine_128, i32 noundef 64)
  %50 = load ptr, ptr %7, align 8, !tbaa !71
  %51 = getelementptr inbounds float, ptr %50, i64 320
  %52 = load ptr, ptr %9, align 8, !tbaa !71
  %53 = getelementptr inbounds float, ptr %52, i64 64
  call void @llvm.memcpy.p0.p0.i64(ptr align 4 %51, ptr align 4 %53, i64 768, i1 false)
  br label %63

54:                                               ; preds = %2
  %55 = load ptr, ptr %3, align 8, !tbaa !29
  %56 = getelementptr inbounds nuw %struct.AACDecContext, ptr %55, i32 0, i32 32
  %57 = load ptr, ptr %56, align 16, !tbaa !40
  %58 = getelementptr inbounds nuw %struct.AVFloatDSPContext, ptr %57, i32 0, i32 5
  %59 = load ptr, ptr %58, align 8, !tbaa !149
  %60 = load ptr, ptr %7, align 8, !tbaa !71
  %61 = load ptr, ptr %8, align 8, !tbaa !71
  %62 = load ptr, ptr %9, align 8, !tbaa !71
  call void %59(ptr noundef %60, ptr noundef %61, ptr noundef %62, ptr noundef @ff_sine_512, i32 noundef 256)
  br label %63

63:                                               ; preds = %54, %37
  %64 = load ptr, ptr %8, align 8, !tbaa !71
  %65 = load ptr, ptr %9, align 8, !tbaa !71
  %66 = getelementptr inbounds float, ptr %65, i64 256
  call void @llvm.memcpy.p0.p0.i64(ptr align 4 %64, ptr align 4 %66, i64 1024, i1 false)
  call void @llvm.lifetime.end.p0(i64 8, ptr %9) #11
  call void @llvm.lifetime.end.p0(i64 8, ptr %8) #11
  call void @llvm.lifetime.end.p0(i64 8, ptr %7) #11
  call void @llvm.lifetime.end.p0(i64 8, ptr %6) #11
  call void @llvm.lifetime.end.p0(i64 8, ptr %5) #11
  ret void
}